; Function Attrs: nounwind uwtable
define dso_local ptr @PyThreadState_GetDict() local_unnamed_addr #1 {
  %1 = tail call align 8 ptr @llvm.threadlocal.address.p0(ptr align 8 @_Py_tss_tstate)
  %2 = load ptr, ptr %1, align 8, !tbaa !4
  %3 = icmp eq ptr %2, null
  br i1 %3, label %_PyThreadState_GetDict.exit, label %4

4:                                                ; preds = %0
  %5 = getelementptr inbounds nuw i8, ptr %2, i64 128
  %6 = load ptr, ptr %5, align 8, !tbaa !287
  %7 = icmp eq ptr %6, null
  br i1 %7, label %8, label %_PyThreadState_GetDict.exit

8:                                                ; preds = %4
  %9 = tail call ptr @PyDict_New() #16
  store ptr %9, ptr %5, align 8, !tbaa !287
  %10 = icmp eq ptr %9, null
  br i1 %10, label %11, label %_PyThreadState_GetDict.exit

11:                                               ; preds = %8
  tail call void @_PyErr_Clear(ptr noundef nonnull %2) #16
  %.pre.i = load ptr, ptr %5, align 8, !tbaa !287
  br label %_PyThreadState_GetDict.exit

_PyThreadState_GetDict.exit:                      ; preds = %11, %8, %4, %0
  %.0 = phi ptr [ null, %0 ], [ %9, %8 ], [ %.pre.i, %11 ], [ %6, %4 ]
  ret ptr %.0
}